Certificate:
    Data:
        Version: 1 (0x0)
        Serial Number: 4097 (0x1001)
    Signature Algorithm: sha256WithRSAEncryption
        Issuer: CN=Interm.
        Validity
            Not Before: Oct 19 14:43:45 2022 GMT
            Not After : Sep 25 14:43:45 2122 GMT
        Subject: CN=1.example.com
        Subject Public Key Info:
            Public Key Algorithm: rsaEncryption
                Public-Key: (2048 bit)
                Modulus:
                    00:af:68:30:1c:0b:f7:10:dc:aa:06:71:27:6d:08:
                    f2:d4:48:b9:21:49:e2:8d:7b:63:c8:55:d6:1c:18:
                    63:83:c9:26:91:86:4e:b3:55:ca:32:12:83:f0:c0:
                    f1:ef:3f:a4:2e:ac:09:48:8f:60:cf:9c:ff:49:93:
                    49:c9:f5:21:32:81:87:ea:d0:9c:82:fa:f5:64:6a:
                    ea:f1:1b:ad:b6:2a:d0:c6:d4:75:72:6c:8c:9e:0c:
                    2f:9c:a9:d7:98:14:aa:53:a9:a4:b6:94:d2:99:73:
                    09:4d:87:da:bf:fd:9e:91:5b:22:58:81:c5:a4:6a:
                    8d:1e:30:51:f9:38:8d:fb:3d:dc:10:d7:b2:f8:83:
                    66:1d:c5:a5:ad:2f:67:bc:cb:ac:33:a1:2c:ec:10:
                    05:fd:b4:99:01:69:fe:a9:5f:4e:68:bc:0e:1f:30:
                    5d:a5:07:8c:91:00:c6:3b:56:c2:19:e9:0a:2e:ab:
                    e5:e2:7e:d5:f3:9a:56:3f:7c:85:45:f3:e4:86:32:
                    25:38:ce:6a:79:14:58:5b:65:06:4f:fc:92:dc:61:
                    1a:c7:b9:85:26:88:6c:79:dd:d5:4d:62:23:b9:d0:
                    32:5a:89:48:94:a6:d8:fb:d9:70:23:97:e7:23:9a:
                    7e:b9:f5:6d:16:54:08:2e:0e:31:70:36:fc:94:1f:
                    a0:c1
                Exponent: 65537 (0x10001)
    Signature Algorithm: sha256WithRSAEncryption
         78:be:c7:52:d3:84:ac:7d:a9:e4:75:7a:83:70:98:b4:61:f2:
         e7:c7:13:85:62:e7:5f:68:00:a4:39:f3:01:55:36:d1:e7:24:
         5a:31:cc:94:cf:3a:c7:ba:da:83:6a:5a:90:e4:e2:da:7f:0c:
         eb:87:ef:9b:82:78:ca:af:1b:84:18:94:d9:69:e8:d9:a8:c0:
         aa:0f:66:31:aa:8b:d5:e9:b9:04:ef:e9:20:df:02:e9:50:47:
         4a:20:a5:ad:43:49:9e:2d:ce:a3:74:57:e6:b1:ce:23:e4:d1:
         3e:91:2d:4f:4b:26:33:f1:3a:93:a3:3c:9d:ef:2a:2c:68:f2:
         38:fa:ef:55:d2:19:06:25:d7:a8:1b:d1:35:04:9f:32:13:6c:
         2a:c7:e0:4a:bd:7e:52:5f:2a:f6:97:62:1d:c0:c0:a4:fa:19:
         06:71:8b:56:54:09:bd:95:cb:8e:20:f6:22:79:c1:e6:e6:a9:
         22:17:0b:98:e5:70:d1:c8:0f:8f:2b:16:c3:b5:ef:f5:af:ee:
         97:63:b1:18:4e:e6:8e:dc:87:d9:ae:cf:70:df:64:f7:5e:62:
         e8:12:a0:f9:79:d8:c9:a0:81:54:3b:15:1a:35:83:82:ef:12:
         5b:99:b7:34:5f:d4:73:83:cf:bd:55:ea:19:ca:fe:7b:a0:78:
         03:6e:88:06
-----BEGIN CERTIFICATE-----
MIICoTCCAYkCAhABMA0GCSqGSIb3DQEBCwUAMBIxEDAOBgNVBAMMB0ludGVybS4w
IBcNMjIxMDE5MTQ0MzQ1WhgPMjEyMjA5MjUxNDQzNDVaMBgxFjAUBgNVBAMMDTEu
ZXhhbXBsZS5jb20wggEiMA0GCSqGSIb3DQEBAQUAA4IBDwAwggEKAoIBAQCvaDAc
C/cQ3KoGcSdtCPLUSLkhSeKNe2PIVdYcGGODySaRhk6zVcoyEoPwwPHvP6QurAlI
j2DPnP9Jk0nJ9SEygYfq0JyC+vVkaurxG622KtDG1HVybIyeDC+cqdeYFKpTqaS2
lNKZcwlNh9q//Z6RWyJYgcWkao0eMFH5OI37PdwQ17L4g2YdxaWtL2e8y6wzoSzs
EAX9tJkBaf6pX05ovA4fMF2lB4yRAMY7VsIZ6Qouq+XiftXzmlY/fIVF8+SGMiU4
zmp5FFhbZQZP/JLcYRrHuYUmiGx53dVNYiO50DJaiUiUptj72XAjl+cjmn659W0W
VAguDjFwNvyUH6DBAgMBAAEwDQYJKoZIhvcNAQELBQADggEBAHi+x1LThKx9qeR1
eoNwmLRh8ufHE4Vi519oAKQ58wFVNtHnJFoxzJTPOse62oNqWpDk4tp/DOuH75uC
eMqvG4QYlNlp6NmowKoPZjGqi9XpuQTv6SDfAulQR0ogpa1DSZ4tzqN0V+axziPk
0T6RLU9LJjPxOpOjPJ3vKixo8jj671XSGQYl16gb0TUEnzITbCrH4Eq9flJfKvaX
Yh3AwKT6GQZxi1ZUCb2Vy44g9iJ5webmqSIXC5jlcNHID48rFsO17/Wv7pdjsRhO
5o7ch9muz3DfZPdeYugSoPl52MmggVQ7FRo1g4LvEluZtzRf1HODz71V6hnK/nug
eANuiAY=
-----END CERTIFICATE-----
